; Function Attrs: mustprogress nofree nounwind willreturn memory(read, inaccessiblemem: none) uwtable
define internal noundef zeroext i1 @_ZL21compareByScalarFnNameRKN4llvm7VecDescES2_(ptr nocapture noundef nonnull readonly align 8 dereferenceable(64) %0, ptr nocapture noundef nonnull readonly align 8 dereferenceable(64) %1) #8 {
  %.sroa.2.0..sroa_idx.i = getelementptr inbounds i8, ptr %0, i64 8
  %.sroa.2.0.copyload.i = load i64, ptr %.sroa.2.0..sroa_idx.i, align 8
  %.sroa.2.0..sroa_idx.i5 = getelementptr inbounds i8, ptr %1, i64 8
  %.sroa.2.0.copyload.i6 = load i64, ptr %.sroa.2.0..sroa_idx.i5, align 8
  %.sroa.speculated.i.i = tail call i64 @llvm.umin.i64(i64 %.sroa.2.0.copyload.i6, i64 %.sroa.2.0.copyload.i)
  %3 = icmp eq i64 %.sroa.speculated.i.i, 0
  br i1 %3, label %_ZN4llvm9StringRef13compareMemoryEPKcS2_m.exit.thread.i.i, label %_ZN4llvm9StringRef13compareMemoryEPKcS2_m.exit.i.i

_ZN4llvm9StringRef13compareMemoryEPKcS2_m.exit.i.i: ; preds = %2
  %.sroa.0.0.copyload.i4 = load ptr, ptr %1, align 8
  %.sroa.0.0.copyload.i = load ptr, ptr %0, align 8
  %4 = tail call i32 @memcmp(ptr noundef %.sroa.0.0.copyload.i, ptr noundef %.sroa.0.0.copyload.i4, i64 noundef %.sroa.speculated.i.i) #27
  %.not.i.i = icmp eq i32 %4, 0
  br i1 %.not.i.i, label %_ZN4llvm9StringRef13compareMemoryEPKcS2_m.exit.thread.i.i, label %5

5:                                                ; preds = %_ZN4llvm9StringRef13compareMemoryEPKcS2_m.exit.i.i
  %.inv.i.i = icmp slt i32 %4, 0
  br label %_ZN4llvmltENS_9StringRefES0_.exit

_ZN4llvm9StringRef13compareMemoryEPKcS2_m.exit.thread.i.i: ; preds = %_ZN4llvm9StringRef13compareMemoryEPKcS2_m.exit.i.i, %2
  %6 = icmp ult i64 %.sroa.2.0.copyload.i, %.sroa.2.0.copyload.i6
  br label %_ZN4llvmltENS_9StringRefES0_.exit

_ZN4llvmltENS_9StringRefES0_.exit:                ; preds = %5, %_ZN4llvm9StringRef13compareMemoryEPKcS2_m.exit.thread.i.i
  %.0.i.i = phi i1 [ %.inv.i.i, %5 ], [ %6, %_ZN4llvm9StringRef13compareMemoryEPKcS2_m.exit.thread.i.i ]
  ret i1 %.0.i.i
}